; Function Attrs: mustprogress nofree norecurse nosync nounwind willreturn memory(read, inaccessiblemem: none) uwtable
define dso_local noundef ptr @_ZN5clang4Expr11IgnoreCastsEv(ptr noundef nonnull readonly align 8 dereferenceable(16) %0) local_unnamed_addr #0 align 2 {
  br label %.lr.ph.i

.lr.ph.i:                                         ; preds = %1, %_ZN5clang21IgnoreCastsSingleStepEPNS_4ExprE.exit
  %.068.i = phi ptr [ %.0.i, %_ZN5clang21IgnoreCastsSingleStepEPNS_4ExprE.exit ], [ %0, %1 ]
  %2 = load i8, ptr %.068.i, align 8
  %3 = add i8 %2, -89
  %spec.select.i.i.i.i.i.i.i.i.i = icmp ult i8 %3, -10
  br i1 %spec.select.i.i.i.i.i.i.i.i.i, label %6, label %4

4:                                                ; preds = %.lr.ph.i
  %5 = getelementptr inbounds nuw i8, ptr %.068.i, i64 16
  br label %_ZNK5clang24MaterializeTemporaryExpr10getSubExprEv.exit.sink.split.i

6:                                                ; preds = %.lr.ph.i
  %7 = and i8 %2, -2
  %spec.select.i.i.i.i.i.i.i.i21.not.i = icmp eq i8 %7, 60
  br i1 %spec.select.i.i.i.i.i.i.i.i21.not.i, label %8, label %10

8:                                                ; preds = %6
  %9 = getelementptr inbounds nuw i8, ptr %.068.i, i64 16
  br label %_ZNK5clang24MaterializeTemporaryExpr10getSubExprEv.exit.sink.split.i

10:                                               ; preds = %6
  switch i8 %2, label %_ZN5clang15IgnoreExprNodesIJRFPNS_4ExprES2_EEEES2_S2_DpOT_.exit [
    i8 48, label %11
    i8 9, label %19
  ]

11:                                               ; preds = %10
  %12 = getelementptr inbounds nuw i8, ptr %.068.i, i64 16
  %.0.copyload.i.i.i.i.i.i.i.i.i.i = load i64, ptr %12, align 8
  %13 = and i64 %.0.copyload.i.i.i.i.i.i.i.i.i.i, 4
  %14 = icmp eq i64 %13, 0
  %15 = and i64 %.0.copyload.i.i.i.i.i.i.i.i.i.i, -8
  %16 = inttoptr i64 %15 to ptr
  br i1 %14, label %_ZN5clang21IgnoreCastsSingleStepEPNS_4ExprE.exit, label %17

17:                                               ; preds = %11
  %18 = getelementptr inbounds nuw i8, ptr %16, i64 40
  br label %_ZNK5clang24MaterializeTemporaryExpr10getSubExprEv.exit.sink.split.i

19:                                               ; preds = %10
  %20 = getelementptr inbounds nuw i8, ptr %.068.i, i64 16
  br label %_ZNK5clang24MaterializeTemporaryExpr10getSubExprEv.exit.sink.split.i

_ZNK5clang24MaterializeTemporaryExpr10getSubExprEv.exit.sink.split.i: ; preds = %19, %17, %8, %4
  %.sink.i = phi ptr [ %18, %17 ], [ %20, %19 ], [ %9, %8 ], [ %5, %4 ]
  %21 = load ptr, ptr %.sink.i, align 8
  br label %_ZN5clang21IgnoreCastsSingleStepEPNS_4ExprE.exit

_ZN5clang21IgnoreCastsSingleStepEPNS_4ExprE.exit: ; preds = %11, %_ZNK5clang24MaterializeTemporaryExpr10getSubExprEv.exit.sink.split.i
  %.0.i = phi ptr [ %16, %11 ], [ %21, %_ZNK5clang24MaterializeTemporaryExpr10getSubExprEv.exit.sink.split.i ]
  %.not.i = icmp eq ptr %.0.i, %.068.i
  br i1 %.not.i, label %_ZN5clang15IgnoreExprNodesIJRFPNS_4ExprES2_EEEES2_S2_DpOT_.exit, label %.lr.ph.i, !llvm.loop !7

_ZN5clang15IgnoreExprNodesIJRFPNS_4ExprES2_EEEES2_S2_DpOT_.exit: ; preds = %10, %_ZN5clang21IgnoreCastsSingleStepEPNS_4ExprE.exit
  %.0.i3 = phi ptr [ %.0.i, %_ZN5clang21IgnoreCastsSingleStepEPNS_4ExprE.exit ], [ %.068.i, %10 ]
  ret ptr %.0.i3
}